target datalayout = "e-m:e-p270:32:32-p271:32:32-p272:64:64-i64:64-i128:128-f80:128-n8:16:32:64-S128"
target triple = "x86_64-pc-linux-gnu"

@.str.1 = private unnamed_addr constant [32 x i8] c"/sys/devices/system/node/node%u\00", align 1

; Function Attrs: inlinehint nounwind uwtable
define internal i32 @mi_prim_access(ptr noundef %0, i32 noundef %1) #5 {
  %3 = alloca ptr, align 8
  %4 = alloca i32, align 4
  store ptr %0, ptr %3, align 8, !tbaa !35
  store i32 %1, ptr %4, align 4, !tbaa !19
  %5 = load ptr, ptr %3, align 8, !tbaa !35
  %6 = load i32, ptr %4, align 4, !tbaa !19
  %7 = call i64 (i64, ...) @syscall(i64 noundef 21, ptr noundef %5, i32 noundef %6) #7
  %8 = trunc i64 %7 to i32
  ret i32 %8
}

; Function Attrs: nounwind uwtable
define hidden i64 @_mi_prim_numa_node_count() #0 {
  %1 = alloca [128 x i8], align 16
  %2 = alloca i32, align 4
  call void @llvm.lifetime.start.p0(i64 128, ptr %1) #6
  call void @llvm.lifetime.start.p0(i64 4, ptr %2) #6
  store i32 0, ptr %2, align 4, !tbaa !19
  store i32 0, ptr %2, align 4, !tbaa !19
  br label %3

3:                                                ; preds = %15, %0
  %4 = load i32, ptr %2, align 4, !tbaa !19
  %5 = icmp ult i32 %4, 256
  br i1 %5, label %6, label %18

6:                                                ; preds = %3
  %7 = getelementptr inbounds [128 x i8], ptr %1, i64 0, i64 0
  %8 = load i32, ptr %2, align 4, !tbaa !19
  %9 = add i32 %8, 1
  call void (ptr, i64, ptr, ...) @_mi_snprintf(ptr noundef %7, i64 noundef 127, ptr noundef @.str.1, i32 noundef %9) #8
  %10 = getelementptr inbounds [128 x i8], ptr %1, i64 0, i64 0
  %11 = call i32 @mi_prim_access(ptr noundef %10, i32 noundef 4) #8
  %12 = icmp ne i32 %11, 0
  br i1 %12, label %13, label %14

13:                                               ; preds = %6
  br label %18

14:                                               ; preds = %6
  br label %15

15:                                               ; preds = %14
  %16 = load i32, ptr %2, align 4, !tbaa !19
  %17 = add i32 %16, 1
  store i32 %17, ptr %2, align 4, !tbaa !19
  br label %3, !llvm.loop !34

18:                                               ; preds = %13, %3
  %19 = load i32, ptr %2, align 4, !tbaa !19
  %20 = add i32 %19, 1
  %21 = zext i32 %20 to i64
  call void @llvm.lifetime.end.p0(i64 4, ptr %2) #6
  call void @llvm.lifetime.end.p0(i64 128, ptr %1) #6
  ret i64 %21
}